target datalayout = "e-m:e-p270:32:32-p271:32:32-p272:64:64-i64:64-i128:128-f80:128-n8:16:32:64-S128"
target triple = "x86_64-unknown-linux-gnu"

%"class.nla::emonics" = type { %class.trail_stack, %class.union_find, %class.svector, ptr, %class.vector.1, %class.svector, i32, %class.svector.2, %"struct.nla::emonics::hash_canonical", %"struct.nla::emonics::eq_canonical", %class.map }
%class.trail_stack = type { %class.ptr_vector, %class.svector, %class.region }
%class.ptr_vector = type { %class.vector }
%class.vector = type { ptr }
%class.region = type { ptr, ptr, ptr, ptr, ptr }
%class.union_find = type { ptr, ptr, %class.svector, %class.svector, %class.svector, %"class.union_find<nla::emonics>::mk_var_trail" }
%"class.union_find<nla::emonics>::mk_var_trail" = type { %class.trail, ptr }
%class.trail = type { ptr }
%class.vector.1 = type { ptr }
%class.svector = type { %class.vector.0 }
%class.vector.0 = type { ptr }
%class.svector.2 = type { %class.vector.3 }
%class.vector.3 = type { ptr }
%"struct.nla::emonics::hash_canonical" = type { ptr }
%"struct.nla::emonics::eq_canonical" = type { ptr }
%class.map = type { %class.table2map }
%class.table2map = type { %class.core_hashtable }
%class.core_hashtable = type <{ %"struct.table2map<default_map_entry<unsigned int, svector<unsigned int>>, nla::emonics::hash_canonical, nla::emonics::eq_canonical>::entry_hash_proc", %"struct.table2map<default_map_entry<unsigned int, svector<unsigned int>>, nla::emonics::hash_canonical, nla::emonics::eq_canonical>::entry_eq_proc", ptr, i32, i32, i32, [4 x i8] }>
%"struct.table2map<default_map_entry<unsigned int, svector<unsigned int>>, nla::emonics::hash_canonical, nla::emonics::eq_canonical>::entry_hash_proc" = type { %"struct.nla::emonics::hash_canonical" }
%"struct.table2map<default_map_entry<unsigned int, svector<unsigned int>>, nla::emonics::hash_canonical, nla::emonics::eq_canonical>::entry_eq_proc" = type { %"struct.nla::emonics::eq_canonical" }
%"class.nla::monic" = type <{ %"class.nla::mon_eq", %class.svector, i8, [3 x i8], i32, i8, i8, [6 x i8] }>
%"class.nla::mon_eq" = type { i32, %class.svector }

; Function Attrs: mustprogress nounwind uwtable
define linkonce_odr hidden noundef i32 @_ZNK6vectorIN3nla5monicELb1EjE4sizeEv(ptr noundef nonnull align 8 dereferenceable(8) %this) #4 comdat align 2 {
entry:
  %retval = alloca i32, align 4
  %this.addr = alloca ptr, align 8
  store ptr %this, ptr %this.addr, align 8
  %this1 = load ptr, ptr %this.addr, align 8
  %m_data = getelementptr inbounds %class.vector.1, ptr %this1, i32 0, i32 0
  %0 = load ptr, ptr %m_data, align 8
  %cmp = icmp eq ptr %0, null
  br i1 %cmp, label %if.then, label %if.end

if.then:                                          ; preds = %entry
  store i32 0, ptr %retval, align 4
  br label %return

if.end:                                           ; preds = %entry
  %m_data2 = getelementptr inbounds %class.vector.1, ptr %this1, i32 0, i32 0
  %1 = load ptr, ptr %m_data2, align 8
  %arrayidx = getelementptr inbounds i32, ptr %1, i64 -1
  %2 = load i32, ptr %arrayidx, align 4
  store i32 %2, ptr %retval, align 4
  br label %return

return:                                           ; preds = %if.end, %if.then
  %3 = load i32, ptr %retval, align 4
  ret i32 %3
}

; Function Attrs: mustprogress nounwind uwtable
define linkonce_odr hidden void @_ZN3nla5monic11set_visitedEj(ptr noundef nonnull align 8 dereferenceable(34) %this, i32 noundef %v) #4 comdat align 2 {
entry:
  %this.addr = alloca ptr, align 8
  %v.addr = alloca i32, align 4
  store ptr %this, ptr %this.addr, align 8
  store i32 %v, ptr %v.addr, align 4
  %this1 = load ptr, ptr %this.addr, align 8
  %0 = load i32, ptr %v.addr, align 4
  %m_visited = getelementptr inbounds %"class.nla::monic", ptr %this1, i32 0, i32 4
  store i32 %0, ptr %m_visited, align 4
  ret void
}

; Function Attrs: mustprogress nounwind uwtable
define linkonce_odr hidden noundef ptr @_ZN6vectorIN3nla5monicELb1EjE3endEv(ptr noundef nonnull align 8 dereferenceable(8) %this) #4 comdat align 2 {
entry:
  %this.addr = alloca ptr, align 8
  store ptr %this, ptr %this.addr, align 8
  %this1 = load ptr, ptr %this.addr, align 8
  %m_data = getelementptr inbounds %class.vector.1, ptr %this1, i32 0, i32 0
  %0 = load ptr, ptr %m_data, align 8
  %call = call noundef i32 @_ZNK6vectorIN3nla5monicELb1EjE4sizeEv(ptr noundef nonnull align 8 dereferenceable(8) %this1)
  %idx.ext = zext i32 %call to i64
  %add.ptr = getelementptr inbounds %"class.nla::monic", ptr %0, i64 %idx.ext
  ret ptr %add.ptr
}

; Function Attrs: mustprogress nounwind uwtable
define linkonce_odr hidden noundef ptr @_ZN6vectorIN3nla5monicELb1EjE5beginEv(ptr noundef nonnull align 8 dereferenceable(8) %this) #4 comdat align 2 {
entry:
  %this.addr = alloca ptr, align 8
  store ptr %this, ptr %this.addr, align 8
  %this1 = load ptr, ptr %this.addr, align 8
  %m_data = getelementptr inbounds %class.vector.1, ptr %this1, i32 0, i32 0
  %0 = load ptr, ptr %m_data, align 8
  ret ptr %0
}

; Function Attrs: mustprogress uwtable
define hidden void @_ZNK3nla7emonics11inc_visitedEv(ptr noundef nonnull align 8 dereferenceable(216) %this) #5 align 2 {
entry:
  %this.addr = alloca ptr, align 8
  %__range2 = alloca ptr, align 8
  %__begin2 = alloca ptr, align 8
  %__end2 = alloca ptr, align 8
  %svt = alloca ptr, align 8
  store ptr %this, ptr %this.addr, align 8
  %this1 = load ptr, ptr %this.addr, align 8
  %m_visited = getelementptr inbounds %"class.nla::emonics", ptr %this1, i32 0, i32 6
  %0 = load i32, ptr %m_visited, align 8
  %inc = add i32 %0, 1
  store i32 %inc, ptr %m_visited, align 8
  %m_visited2 = getelementptr inbounds %"class.nla::emonics", ptr %this1, i32 0, i32 6
  %1 = load i32, ptr %m_visited2, align 8
  %cmp = icmp eq i32 %1, 0
  br i1 %cmp, label %if.then, label %if.end

if.then:                                          ; preds = %entry
  %m_monics = getelementptr inbounds %"class.nla::emonics", ptr %this1, i32 0, i32 4
  store ptr %m_monics, ptr %__range2, align 8
  %2 = load ptr, ptr %__range2, align 8
  %call = call noundef ptr @_ZN6vectorIN3nla5monicELb1EjE5beginEv(ptr noundef nonnull align 8 dereferenceable(8) %2)
  store ptr %call, ptr %__begin2, align 8
  %3 = load ptr, ptr %__range2, align 8
  %call3 = call noundef ptr @_ZN6vectorIN3nla5monicELb1EjE3endEv(ptr noundef nonnull align 8 dereferenceable(8) %3)
  store ptr %call3, ptr %__end2, align 8
  br label %for.cond

for.cond:                                         ; preds = %for.inc, %if.then
  %4 = load ptr, ptr %__begin2, align 8
  %5 = load ptr, ptr %__end2, align 8
  %cmp4 = icmp ne ptr %4, %5
  br i1 %cmp4, label %for.body, label %for.end

for.body:                                         ; preds = %for.cond
  %6 = load ptr, ptr %__begin2, align 8
  store ptr %6, ptr %svt, align 8
  %7 = load ptr, ptr %svt, align 8
  call void @_ZN3nla5monic11set_visitedEj(ptr noundef nonnull align 8 dereferenceable(34) %7, i32 noundef 0)
  br label %for.inc

for.inc:                                          ; preds = %for.body
  %8 = load ptr, ptr %__begin2, align 8
  %incdec.ptr = getelementptr inbounds %"class.nla::monic", ptr %8, i32 1
  store ptr %incdec.ptr, ptr %__begin2, align 8
  br label %for.cond

for.end:                                          ; preds = %for.cond
  %m_visited5 = getelementptr inbounds %"class.nla::emonics", ptr %this1, i32 0, i32 6
  %9 = load i32, ptr %m_visited5, align 8
  %inc6 = add i32 %9, 1
  store i32 %inc6, ptr %m_visited5, align 8
  br label %if.end

if.end:                                           ; preds = %for.end, %entry
  ret void
}