; Function Attrs: mustprogress nofree norecurse nosync nounwind memory(readwrite, inaccessiblemem: none) uwtable
define hidden void @_ZNK3nla7emonics11inc_visitedEv(ptr nocapture noundef nonnull align 8 dereferenceable(216) %this) local_unnamed_addr #3 align 2 {
entry:
  %m_visited = getelementptr inbounds i8, ptr %this, i64 144
  %0 = load i32, ptr %m_visited, align 8
  %inc = add i32 %0, 1
  store i32 %inc, ptr %m_visited, align 8
  %cmp = icmp eq i32 %inc, 0
  br i1 %cmp, label %if.then, label %if.end

if.then:                                          ; preds = %entry
  %m_monics = getelementptr inbounds i8, ptr %this, i64 128
  %1 = load ptr, ptr %m_monics, align 8
  %cmp.i.i = icmp eq ptr %1, null
  br i1 %cmp.i.i, label %for.end, label %_ZN6vectorIN3nla5monicELb1EjE3endEv.exit

_ZN6vectorIN3nla5monicELb1EjE3endEv.exit:         ; preds = %if.then
  %arrayidx.i.i = getelementptr inbounds i8, ptr %1, i64 -4
  %2 = load i32, ptr %arrayidx.i.i, align 4
  %3 = zext i32 %2 to i64
  %add.ptr.i = getelementptr inbounds %"class.nla::monic", ptr %1, i64 %3
  %cmp4.not4 = icmp eq i32 %2, 0
  br i1 %cmp4.not4, label %for.end, label %for.body

for.body:                                         ; preds = %_ZN6vectorIN3nla5monicELb1EjE3endEv.exit, %for.body
  %__begin2.05 = phi ptr [ %incdec.ptr, %for.body ], [ %1, %_ZN6vectorIN3nla5monicELb1EjE3endEv.exit ]
  %m_visited.i = getelementptr inbounds i8, ptr %__begin2.05, i64 28
  store i32 0, ptr %m_visited.i, align 4
  %incdec.ptr = getelementptr inbounds i8, ptr %__begin2.05, i64 40
  %cmp4.not = icmp eq ptr %incdec.ptr, %add.ptr.i
  br i1 %cmp4.not, label %for.end.loopexit, label %for.body

for.end.loopexit:                                 ; preds = %for.body
  %.pre = load i32, ptr %m_visited, align 8
  %4 = add i32 %.pre, 1
  br label %for.end

for.end:                                          ; preds = %if.then, %for.end.loopexit, %_ZN6vectorIN3nla5monicELb1EjE3endEv.exit
  %inc6 = phi i32 [ %4, %for.end.loopexit ], [ 1, %_ZN6vectorIN3nla5monicELb1EjE3endEv.exit ], [ 1, %if.then ]
  store i32 %inc6, ptr %m_visited, align 8
  br label %if.end

if.end:                                           ; preds = %for.end, %entry
  ret void
}